target datalayout = "e-m:e-p270:32:32-p271:32:32-p272:64:64-i64:64-i128:128-f80:128-n8:16:32:64-S128"
target triple = "x86_64-pc-linux-gnu"

%struct._generic_N_Vector = type { ptr, ptr, ptr }
%struct._N_VectorContent_Serial = type { i64, i32, ptr }

; Function Attrs: nounwind uwtable
define internal i32 @f(double noundef %0, ptr noundef %1, ptr noundef %2, ptr noundef %3) #0 {
  %5 = alloca i32, align 4
  %6 = alloca double, align 8
  %7 = alloca ptr, align 8
  %8 = alloca ptr, align 8
  %9 = alloca ptr, align 8
  %10 = alloca double, align 8
  %11 = alloca double, align 8
  %12 = alloca double, align 8
  %13 = alloca double, align 8
  %14 = alloca double, align 8
  %15 = alloca ptr, align 8
  %16 = alloca i32, align 4
  store double %0, ptr %6, align 8, !tbaa !25
  store ptr %1, ptr %7, align 8, !tbaa !4
  store ptr %2, ptr %8, align 8, !tbaa !4
  store ptr %3, ptr %9, align 8, !tbaa !13
  call void @llvm.lifetime.start.p0(i64 8, ptr %10) #5
  call void @llvm.lifetime.start.p0(i64 8, ptr %11) #5
  call void @llvm.lifetime.start.p0(i64 8, ptr %12) #5
  call void @llvm.lifetime.start.p0(i64 8, ptr %13) #5
  call void @llvm.lifetime.start.p0(i64 8, ptr %14) #5
  call void @llvm.lifetime.start.p0(i64 8, ptr %15) #5
  %17 = load ptr, ptr %9, align 8, !tbaa !13
  store ptr %17, ptr %15, align 8, !tbaa !31
  %18 = load ptr, ptr %7, align 8, !tbaa !4
  %19 = getelementptr inbounds nuw %struct._generic_N_Vector, ptr %18, i32 0, i32 0
  %20 = load ptr, ptr %19, align 8, !tbaa !18
  %21 = getelementptr inbounds nuw %struct._N_VectorContent_Serial, ptr %20, i32 0, i32 2
  %22 = load ptr, ptr %21, align 8, !tbaa !21
  %23 = getelementptr inbounds double, ptr %22, i64 0
  %24 = load double, ptr %23, align 8, !tbaa !25
  store double %24, ptr %10, align 8, !tbaa !25
  %25 = load ptr, ptr %7, align 8, !tbaa !4
  %26 = getelementptr inbounds nuw %struct._generic_N_Vector, ptr %25, i32 0, i32 0
  %27 = load ptr, ptr %26, align 8, !tbaa !18
  %28 = getelementptr inbounds nuw %struct._N_VectorContent_Serial, ptr %27, i32 0, i32 2
  %29 = load ptr, ptr %28, align 8, !tbaa !21
  %30 = getelementptr inbounds double, ptr %29, i64 1
  %31 = load double, ptr %30, align 8, !tbaa !25
  store double %31, ptr %11, align 8, !tbaa !25
  %32 = load ptr, ptr %7, align 8, !tbaa !4
  %33 = getelementptr inbounds nuw %struct._generic_N_Vector, ptr %32, i32 0, i32 0
  %34 = load ptr, ptr %33, align 8, !tbaa !18
  %35 = getelementptr inbounds nuw %struct._N_VectorContent_Serial, ptr %34, i32 0, i32 2
  %36 = load ptr, ptr %35, align 8, !tbaa !21
  %37 = getelementptr inbounds double, ptr %36, i64 2
  %38 = load double, ptr %37, align 8, !tbaa !25
  store double %38, ptr %12, align 8, !tbaa !25
  %39 = load ptr, ptr %15, align 8, !tbaa !31
  %40 = load i32, ptr %39, align 4, !tbaa !14
  %41 = icmp ne i32 %40, 0
  br i1 %41, label %42, label %52

42:                                               ; preds = %4
  %43 = load double, ptr %10, align 8, !tbaa !25
  %44 = fcmp olt double %43, 0.000000e+00
  br i1 %44, label %51, label %45

45:                                               ; preds = %42
  %46 = load double, ptr %11, align 8, !tbaa !25
  %47 = fcmp olt double %46, 0.000000e+00
  br i1 %47, label %51, label %48

48:                                               ; preds = %45
  %49 = load double, ptr %12, align 8, !tbaa !25
  %50 = fcmp olt double %49, 0.000000e+00
  br i1 %50, label %51, label %52

51:                                               ; preds = %48, %45, %42
  store i32 1, ptr %5, align 4
  store i32 1, ptr %16, align 4
  br label %85

52:                                               ; preds = %48, %4
  %53 = load double, ptr %10, align 8, !tbaa !25
  %54 = load double, ptr %11, align 8, !tbaa !25
  %55 = fmul double 1.000000e+04, %54
  %56 = load double, ptr %12, align 8, !tbaa !25
  %57 = fmul double %55, %56
  %58 = call double @llvm.fmuladd.f64(double -4.000000e-02, double %53, double %57)
  %59 = load ptr, ptr %8, align 8, !tbaa !4
  %60 = getelementptr inbounds nuw %struct._generic_N_Vector, ptr %59, i32 0, i32 0
  %61 = load ptr, ptr %60, align 8, !tbaa !18
  %62 = getelementptr inbounds nuw %struct._N_VectorContent_Serial, ptr %61, i32 0, i32 2
  %63 = load ptr, ptr %62, align 8, !tbaa !21
  %64 = getelementptr inbounds double, ptr %63, i64 0
  store double %58, ptr %64, align 8, !tbaa !25
  store double %58, ptr %13, align 8, !tbaa !25
  %65 = load double, ptr %11, align 8, !tbaa !25
  %66 = fmul double 3.000000e+07, %65
  %67 = load double, ptr %11, align 8, !tbaa !25
  %68 = fmul double %66, %67
  %69 = load ptr, ptr %8, align 8, !tbaa !4
  %70 = getelementptr inbounds nuw %struct._generic_N_Vector, ptr %69, i32 0, i32 0
  %71 = load ptr, ptr %70, align 8, !tbaa !18
  %72 = getelementptr inbounds nuw %struct._N_VectorContent_Serial, ptr %71, i32 0, i32 2
  %73 = load ptr, ptr %72, align 8, !tbaa !21
  %74 = getelementptr inbounds double, ptr %73, i64 2
  store double %68, ptr %74, align 8, !tbaa !25
  store double %68, ptr %14, align 8, !tbaa !25
  %75 = load double, ptr %13, align 8, !tbaa !25
  %76 = fneg double %75
  %77 = load double, ptr %14, align 8, !tbaa !25
  %78 = fsub double %76, %77
  %79 = load ptr, ptr %8, align 8, !tbaa !4
  %80 = getelementptr inbounds nuw %struct._generic_N_Vector, ptr %79, i32 0, i32 0
  %81 = load ptr, ptr %80, align 8, !tbaa !18
  %82 = getelementptr inbounds nuw %struct._N_VectorContent_Serial, ptr %81, i32 0, i32 2
  %83 = load ptr, ptr %82, align 8, !tbaa !21
  %84 = getelementptr inbounds double, ptr %83, i64 1
  store double %78, ptr %84, align 8, !tbaa !25
  store i32 0, ptr %5, align 4
  store i32 1, ptr %16, align 4
  br label %85

85:                                               ; preds = %52, %51
  call void @llvm.lifetime.end.p0(i64 8, ptr %15) #5
  call void @llvm.lifetime.end.p0(i64 8, ptr %14) #5
  call void @llvm.lifetime.end.p0(i64 8, ptr %13) #5
  call void @llvm.lifetime.end.p0(i64 8, ptr %12) #5
  call void @llvm.lifetime.end.p0(i64 8, ptr %11) #5
  call void @llvm.lifetime.end.p0(i64 8, ptr %10) #5
  %86 = load i32, ptr %5, align 4
  ret i32 %86
}