; Function Attrs: mustprogress nofree norecurse nosync nounwind willreturn memory(readwrite, inaccessiblemem: none) uwtable
define internal range(i32 0, 2) i32 @f(double %0, ptr noundef readonly captures(none) %1, ptr noundef readonly captures(none) %2, ptr noundef readonly captures(none) %3) #3 {
  %5 = load ptr, ptr %1, align 8, !tbaa !11
  %6 = getelementptr inbounds nuw i8, ptr %5, i64 16
  %7 = load ptr, ptr %6, align 8, !tbaa !14
  %8 = load double, ptr %7, align 8, !tbaa !19
  %9 = getelementptr inbounds nuw i8, ptr %7, i64 8
  %10 = load double, ptr %9, align 8, !tbaa !19
  %11 = getelementptr inbounds nuw i8, ptr %7, i64 16
  %12 = load double, ptr %11, align 8, !tbaa !19
  %13 = load i32, ptr %3, align 4, !tbaa !22
  %.not = icmp eq i32 %13, 0
  br i1 %.not, label %18, label %14

14:                                               ; preds = %4
  %15 = fcmp olt double %8, 0.000000e+00
  %16 = fcmp olt double %10, 0.000000e+00
  %or.cond = select i1 %15, i1 true, i1 %16
  %17 = fcmp olt double %12, 0.000000e+00
  %or.cond3 = select i1 %or.cond, i1 true, i1 %17
  br i1 %or.cond3, label %31, label %18

18:                                               ; preds = %14, %4
  %19 = fmul double %10, 1.000000e+04
  %20 = fmul double %19, %12
  %21 = tail call double @llvm.fmuladd.f64(double %8, double -4.000000e-02, double %20)
  %22 = load ptr, ptr %2, align 8, !tbaa !11
  %23 = getelementptr inbounds nuw i8, ptr %22, i64 16
  %24 = load ptr, ptr %23, align 8, !tbaa !14
  store double %21, ptr %24, align 8, !tbaa !19
  %25 = fmul double %10, 3.000000e+07
  %26 = fmul double %10, %25
  %27 = getelementptr inbounds nuw i8, ptr %24, i64 16
  store double %26, ptr %27, align 8, !tbaa !19
  %28 = fneg double %21
  %29 = fsub double %28, %26
  %30 = getelementptr inbounds nuw i8, ptr %24, i64 8
  store double %29, ptr %30, align 8, !tbaa !19
  br label %31

31:                                               ; preds = %14, %18
  %.0 = phi i32 [ 0, %18 ], [ 1, %14 ]
  ret i32 %.0
}